target datalayout = "e-m:e-p270:32:32-p271:32:32-p272:64:64-i64:64-i128:128-f80:128-n8:16:32:64-S128"
target triple = "x86_64-unknown-linux-gnu"

%"class.std::_Bind.159" = type { ptr, %"class.std::tuple.163" }
%"class.std::tuple.163" = type { %"struct.std::_Tuple_impl.164" }
%"struct.std::_Tuple_impl.164" = type { %"struct.std::_Head_base.165" }
%"struct.std::_Head_base.165" = type { ptr }

; Function Attrs: mustprogress nounwind uwtable
define internal void @_ZNSt11_Tuple_implILm0EJPN12_GLOBAL__N_127DequeueAllWakeableBugStructEEEC2EOS3_(ptr noundef nonnull align 8 dereferenceable(8) %this, ptr noundef nonnull align 8 dereferenceable(8) %__in) unnamed_addr #7 align 2 {
entry:
  %this.addr = alloca ptr, align 8
  %__in.addr = alloca ptr, align 8
  store ptr %this, ptr %this.addr, align 8
  store ptr %__in, ptr %__in.addr, align 8
  %this1 = load ptr, ptr %this.addr, align 8
  %0 = load ptr, ptr %__in.addr, align 8
  call void @llvm.memcpy.p0.p0.i64(ptr align 8 %this1, ptr align 8 %0, i64 8, i1 false)
  ret void
}

; Function Attrs: mustprogress nounwind uwtable
define internal void @_ZNSt5tupleIJPN12_GLOBAL__N_127DequeueAllWakeableBugStructEEEC2EOS3_(ptr noundef nonnull align 8 dereferenceable(8) %this, ptr noundef nonnull align 8 dereferenceable(8) %0) unnamed_addr #7 align 2 {
entry:
  %this.addr = alloca ptr, align 8
  %.addr = alloca ptr, align 8
  store ptr %this, ptr %this.addr, align 8
  store ptr %0, ptr %.addr, align 8
  %this1 = load ptr, ptr %this.addr, align 8
  %1 = load ptr, ptr %.addr, align 8
  call void @_ZNSt11_Tuple_implILm0EJPN12_GLOBAL__N_127DequeueAllWakeableBugStructEEEC2EOS3_(ptr noundef nonnull align 8 dereferenceable(8) %this1, ptr noundef nonnull align 8 dereferenceable(8) %1) #3
  ret void
}

; Function Attrs: mustprogress nounwind uwtable
define internal noundef ptr @_ZSt7launderISt5_BindIFPFvPN12_GLOBAL__N_127DequeueAllWakeableBugStructEES3_EEEPT_S9_(ptr noundef %__p) #7 {
entry:
  %__p.addr = alloca ptr, align 8
  store ptr %__p, ptr %__p.addr, align 8
  %0 = load ptr, ptr %__p.addr, align 8
  ret ptr %0
}

; Function Attrs: mustprogress nounwind uwtable
define internal void @_ZNSt5_BindIFPFvPN12_GLOBAL__N_127DequeueAllWakeableBugStructEES2_EEC2EOS6_(ptr noundef nonnull align 8 dereferenceable(16) %this, ptr noundef nonnull align 8 dereferenceable(16) %0) unnamed_addr #7 align 2 {
entry:
  %this.addr = alloca ptr, align 8
  %.addr = alloca ptr, align 8
  store ptr %this, ptr %this.addr, align 8
  store ptr %0, ptr %.addr, align 8
  %this1 = load ptr, ptr %this.addr, align 8
  %_M_f = getelementptr inbounds %"class.std::_Bind.159", ptr %this1, i32 0, i32 0
  %1 = load ptr, ptr %.addr, align 8
  %_M_f2 = getelementptr inbounds %"class.std::_Bind.159", ptr %1, i32 0, i32 0
  %2 = load ptr, ptr %_M_f2, align 8
  store ptr %2, ptr %_M_f, align 8
  %_M_bound_args = getelementptr inbounds %"class.std::_Bind.159", ptr %this1, i32 0, i32 1
  %3 = load ptr, ptr %.addr, align 8
  %_M_bound_args3 = getelementptr inbounds %"class.std::_Bind.159", ptr %3, i32 0, i32 1
  call void @_ZNSt5tupleIJPN12_GLOBAL__N_127DequeueAllWakeableBugStructEEEC2EOS3_(ptr noundef nonnull align 8 dereferenceable(8) %_M_bound_args, ptr noundef nonnull align 8 dereferenceable(8) %_M_bound_args3) #3
  ret void
}

; Function Attrs: mustprogress nounwind uwtable
define internal noundef nonnull align 8 dereferenceable(16) ptr @_ZN4absl22internal_any_invocable20ObjectInLocalStorageISt5_BindIFPFvPN12_GLOBAL__N_127DequeueAllWakeableBugStructEES5_EEEERT_PNS0_15TypeErasedStateE(ptr noundef %state) #7 {
entry:
  %state.addr = alloca ptr, align 8
  store ptr %state, ptr %state.addr, align 8
  %0 = load ptr, ptr %state.addr, align 8
  %call = call noundef ptr @_ZSt7launderISt5_BindIFPFvPN12_GLOBAL__N_127DequeueAllWakeableBugStructEES3_EEEPT_S9_(ptr noundef %0) #3
  ret ptr %call
}

; Function Attrs: mustprogress nounwind uwtable
define internal void @_ZN4absl22internal_any_invocable22LocalManagerNontrivialISt5_BindIFPFvPN12_GLOBAL__N_127DequeueAllWakeableBugStructEES5_EEEEvNS0_14FunctionToCallEPNS0_15TypeErasedStateESC_(i1 noundef zeroext %operation, ptr noundef %from, ptr noundef %to) #7 {
entry:
  %operation.addr = alloca i8, align 1
  %from.addr = alloca ptr, align 8
  %to.addr = alloca ptr, align 8
  %from_object = alloca ptr, align 8
  %frombool = zext i1 %operation to i8
  store i8 %frombool, ptr %operation.addr, align 1
  store ptr %from, ptr %from.addr, align 8
  store ptr %to, ptr %to.addr, align 8
  %0 = load ptr, ptr %from.addr, align 8
  %call = call noundef nonnull align 8 dereferenceable(16) ptr @_ZN4absl22internal_any_invocable20ObjectInLocalStorageISt5_BindIFPFvPN12_GLOBAL__N_127DequeueAllWakeableBugStructEES5_EEEERT_PNS0_15TypeErasedStateE(ptr noundef %0)
  store ptr %call, ptr %from_object, align 8
  %1 = load i8, ptr %operation.addr, align 1
  %tobool = trunc i8 %1 to i1
  switch i1 %tobool, label %sw.epilog [
    i1 false, label %sw.bb
    i1 true, label %sw.bb1
  ]

sw.bb:                                            ; preds = %entry
  %2 = load ptr, ptr %to.addr, align 8
  %3 = load ptr, ptr %from_object, align 8
  call void @_ZNSt5_BindIFPFvPN12_GLOBAL__N_127DequeueAllWakeableBugStructEES2_EEC2EOS6_(ptr noundef nonnull align 8 dereferenceable(16) %2, ptr noundef nonnull align 8 dereferenceable(16) %3) #3
  br label %sw.bb1

sw.bb1:                                           ; preds = %sw.bb, %entry
  br label %do.end

sw.epilog:                                        ; preds = %entry
  br label %do.body

do.body:                                          ; preds = %sw.epilog
  unreachable

do.cond:                                          ; No predecessors!
  br label %do.end

do.end:                                           ; preds = %do.cond, %sw.bb1
  ret void
}