; Function Attrs: mustprogress nofree norecurse nosync nounwind willreturn memory(argmem: readwrite) uwtable
define internal void @_ZN4absl22internal_any_invocable22LocalManagerNontrivialISt5_BindIFPFvPN12_GLOBAL__N_127DequeueAllWakeableBugStructEES5_EEEEvNS0_14FunctionToCallEPNS0_15TypeErasedStateESC_(i1 noundef zeroext %operation, ptr nocapture noundef readonly %from, ptr nocapture noundef writeonly %to) #14 {
entry:
  br i1 %operation, label %do.end, label %sw.bb

sw.bb:                                            ; preds = %entry
  %0 = load ptr, ptr %from, align 8
  store ptr %0, ptr %to, align 8
  %_M_bound_args.i = getelementptr inbounds i8, ptr %to, i64 8
  %_M_bound_args3.i = getelementptr inbounds i8, ptr %from, i64 8
  %_M_bound_args3.val.i = load i64, ptr %_M_bound_args3.i, align 8
  store i64 %_M_bound_args3.val.i, ptr %_M_bound_args.i, align 8
  br label %do.end

do.end:                                           ; preds = %entry, %sw.bb
  ret void
}